(inn.NNRegressor
BPNeuralNetwork
p1
(dp2
S'output_n'
p3
I1
sS'input_weights'
p4
(lp5
(lp6
F-0.31017554068861569
aF-0.20626025981863341
aF-0.66533229620612155
aF-0.75326347347706746
aF-0.26531288265725028
aa(lp7
F-0.4665111954205543
aF-0.08734177758428241
aF-0.80908671669270504
aF0.03398771192778928
aF0.019601418021358997
aasS'input_cells'
p8
(lp9
F10
aF1
asS'input_n'
p10
I2
sS'hidden_n'
p11
I5
sS'output_cells'
p12
(lp13
F0.0069298162857912016
asS'output_weights'
p14
(lp15
(lp16
F-1.0647378705962081
aa(lp17
F-0.19636018247371573
aa(lp18
F-1.2952246929998092
aa(lp19
F0.95060041614067703
aa(lp20
F0.85057185578725225
aasS'hidden_cells'
p21
(lp22
F0.027460559718748521
aF0.10439936441498189
aF0.00057396124761286695
aF0.00055351215657353391
aF0.066886189925217179
asS'output_correction'
p23
(lp24
(lp25
F0.00011176952295030836
aa(lp26
F0.0004249245928156088
aa(lp27
F2.3361277226208543e-06
aa(lp28
F2.2528961653021879e-06
aa(lp29
F0.00027223908093909551
aasS'input_correction'
p30
(lp31
(lp32
F-0.0011573850919263265
aF-0.00074742658697155289
aF-3.0240742809695523e-05
aF2.1404179748510293e-05
aF0.0021606406161895682
aa(lp33
F-0.00011573850919263265
aF-7.4742658697155289e-05
aF-3.0240742809695523e-06
aF2.1404179748510293e-06
aF0.00021606406161895681
aasb.