(inn.NNRegressor
BPNeuralNetwork
p1
(dp2
S'output_n'
p3
I1
sS'input_weights'
p4
(lp5
(lp6
F0.1109774442772795
aF-0.13906106887963929
aF0.12083947864033984
aF-2.7596504084008564
aF-0.088515555742276139
aa(lp7
F-0.028227670672554026
aF-0.19231441097053045
aF-0.07089834301722181
aF0.1201544937807931
aF-0.19398264536015725
aasS'input_cells'
p8
(lp9
F100
aF1
asS'input_n'
p10
I2
sS'hidden_n'
p11
I5
sS'output_cells'
p12
(lp13
F-1.5977074264289515e-16
asS'output_weights'
p14
(lp15
(lp16
F1.1097431602532153
aa(lp17
F-0.17055218481020451
aa(lp18
F-1.1096423139835894
aa(lp19
F0.89719500740629876
aa(lp20
F-0.76468169271686459
aasS'learn'
p21
F0.050000000000000003
sS'hidden_cells'
p22
(lp23
F0.99998442015298705
aF7.5358648141371583e-07
aF0.99999393548257265
aF1.5925313797515905e-120
aF0.0001179020776290625
asS'output_correction'
p24
(lp25
(lp26
F1.5976825343916763e-16
aa(lp27
F1.2040107178111568e-22
aa(lp28
F1.59769773710442e-16
aa(lp29
F2.544399212250261e-136
aa(lp30
F1.8837302501935592e-20
aasS'correct'
p31
F0.10000000000000001
sS'input_correction'
p32
(lp33
(lp34
F2.762333773685489e-19
aF-2.0534650371112957e-21
aF-1.0751619290167741e-19
aF2.2828222700794537e-134
aF-1.4402842038163597e-18
aa(lp35
F2.7623337736854891e-21
aF-2.0534650371112959e-23
aF-1.075161929016774e-21
aF2.2828222700794538e-136
aF-1.4402842038163598e-20
aasb.