(inn.NNRegressor
BPNeuralNetwork
p1
(dp2
S'output_n'
p3
I1
sS'learn'
p4
F0.050000000000000003
sS'hidden_n'
p5
I5
sS'input_n'
p6
I2
sS'input_weights'
p7
(lp8
(lp9
F-0.1089884855751419
aF-0.20431402565912432
aF-0.19138088706731823
aF-0.1847625595362157
aF-0.053829545264271444
aa(lp10
F0.035261830716839491
aF0.13115943497925828
aF-0.023808267066097778
aF-0.081379677048445939
aF-0.28362214528975749
aasS'input_cells'
p11
(lp12
F10
aF1
asS'output_cells'
p13
(lp14
F0.0081249564648437494
asS'output_weights'
p15
(lp16
(lp17
F-0.62954401641106894
aa(lp18
F-1.3337567123416376
aa(lp19
F0.9340627539155586
aa(lp20
F0.92829708880405259
aa(lp21
F0.34784393817722847
aasS'hidden_cells'
p22
(lp23
F0.25806828436995444
aF0.12851093841088615
aF0.12607729485027136
aF0.12702728644504815
aF0.30552711591778209
asS'output_correction'
p24
(lp25
(lp26
F0.0010000258369766569
aa(lp27
F0.00049798548108596745
aa(lp28
F0.00048855500633953252
aa(lp29
F0.0004922362651273251
aa(lp30
F0.001183930875352136
aasS'correct'
p31
F0.10000000000000001
sS'input_correction'
p32
(lp33
(lp34
F-0.0046706016343069246
aF-0.0057882476542265365
aF0.003988172281366862
aF0.0039890791365039648
aF0.0028603686366662088
aa(lp35
F-0.00046706016343069247
aF-0.00057882476542265367
aF0.00039881722813668618
aF0.00039890791365039649
aF0.0002860368636666209
aasb.