(inn.NNRegressor
BPNeuralNetwork
p1
(dp2
S'output_n'
p3
I1
sS'learn'
p4
F0.050000000000000003
sS'hidden_n'
p5
I5
sS'input_n'
p6
I2
sS'input_weights'
p7
(lp8
(lp9
F-0.12867586322485269
aF-0.33350756227989398
aF0.31837778641465631
aF-0.29464211375034483
aF0.30688083048547499
aa(lp10
F0.10210534176843075
aF0.13848594385765894
aF-0.081526857849522766
aF-0.18164066226086475
aF0.044607930342763891
aasS'input_cells'
p11
(lp12
F9
aF1
asS'output_cells'
p13
(lp14
F1.0306447588505017
asS'output_weights'
p15
(lp16
(lp17
F0.4876483002957927
aa(lp18
F-0.63238304591108974
aa(lp19
F0.42960424702339711
aa(lp20
F-0.43275889480856228
aa(lp21
F0.6007702553825609
aasS'hidden_cells'
p22
(lp23
F0.25458422343242648
aF0.054666147943799454
aF0.94131714772831387
aF0.055976026849757582
aF0.94238927189233834
asS'output_correction'
p24
(lp25
(lp26
F-0.0078016721342289447
aa(lp27
F-0.0016752309210235816
aa(lp28
F-0.028846436993976227
aa(lp29
F-0.0017153718442200275
aa(lp30
F-0.028879291980440553
aasS'correct'
p31
F0.10000000000000001
sS'input_correction'
p32
(lp33
(lp34
F-0.025471213281763275
aF0.0090186986246710774
aF-0.0065050088950528509
aF0.0063122893697480139
aF-0.0089562107787145573
aa(lp35
F-0.0028301348090848085
aF0.001002077624963453
aF-0.00072277876611698342
aF0.00070136548552755709
aF-0.00099513453096828405
aasb.