(inn.NNRegressor
BPNeuralNetwork
p1
(dp2
S'output_n'
p3
I1
sS'input_weights'
p4
(lp5
(lp6
F-0.19678944818447336
aF-0.27014373351909893
aF-0.20164370687945132
aF-0.21121851676403233
aF-0.23889577955147395
aa(lp7
F-0.080289820760033395
aF0.1138770238993934
aF-0.25609193719056483
aF0.11484475996091442
aF0.00088052164249038478
aasS'input_cells'
p8
(lp9
F10
aF1
asS'input_n'
p10
I2
sS'hidden_n'
p11
I5
sS'output_cells'
p12
(lp13
F0.010224717840459554
asS'output_weights'
p14
(lp15
(lp16
F0.55745778965549664
aa(lp17
F0.019661044445436076
aa(lp18
F1.1849827109485855
aa(lp19
F-1.1529728917085125
aa(lp20
F-0.32413362767162174
aasS'hidden_cells'
p21
(lp22
F0.11413559304737349
aF0.069941671518073872
aF0.093271686110606322
aF0.11971142909034002
aF0.084122819498940779
asS'output_correction'
p23
(lp24
(lp25
F-0.00021587429240146541
aa(lp26
F-0.00013228659391179617
aa(lp27
F-0.00017641262206314069
aa(lp28
F-0.00022642034230740827
aa(lp29
F-0.00015910859749607213
aasS'input_correction'
p30
(lp31
(lp32
F-0.0010660102523460417
aF-2.4169520767671033e-05
aF-0.0018954465457304607
aF0.002298102140955239
aF0.00047236792268157796
aa(lp33
F-0.00010660102523460418
aF-2.4169520767671032e-06
aF-0.00018954465457304606
aF0.00022981021409552389
aF4.7236792268157796e-05
aasb.