(inn.NNRegressor
BPNeuralNetwork
p1
(dp2
S'output_n'
p3
I1
sS'input_weights'
p4
(lp5
(lp6
F-0.2062282964123853
aF0.27231526769185854
aF-0.19155368980112278
aF0.16996692535701247
aF0.058583933644312393
aa(lp7
F-0.43458453282540516
aF0.10005648666198906
aF-0.15610610148160026
aF-0.12039263212427444
aF0.51796590941972531
aasS'input_cells'
p8
(lp9
F10
aF1
asS'input_n'
p10
I2
sS'hidden_n'
p11
I5
sS'output_cells'
p12
(lp13
F-0.0023168672551643343
asS'output_weights'
p14
(lp15
(lp16
F-1.4541480445588657
aa(lp17
F-0.34702095013921519
aa(lp18
F0.42111119590891982
aa(lp19
F-1.0342419331717954
aa(lp20
F1.6562101189461804
aasS'hidden_cells'
p21
(lp22
F0.075936974404765573
aF0.943895863354687
aF0.11196281058189639
aF0.82872864523291923
aF0.75186565813677908
asS'output_correction'
p23
(lp24
(lp25
F0.00017593588945465351
aa(lp26
F0.0021868814180915435
aa(lp27
F0.00025940296963336258
aa(lp28
F0.0019200542615568511
aa(lp29
F0.0017419729236196851
aasS'input_correction'
p30
(lp31
(lp32
F-0.0023640645405605476
aF-0.00042557306632112323
aF0.00097012881508430854
aF-0.0034006540253533257
aF0.0071594170946437984
aa(lp33
F-0.00023640645405605479
aF-4.2557306632112326e-05
aF9.7012881508430851e-05
aF-0.00034006540253533256
aF0.00071594170946437982
aasb.